; Function Attrs: mustprogress uwtable
define hidden void @_ZN12solver_na2as17assert_expr_core2EP4exprS1_(ptr noundef nonnull align 8 dereferenceable(120) %this, ptr noundef %t, ptr noundef %a) unnamed_addr #9 align 2 personality ptr @__gxx_personality_v0 {
entry:
  %new_t = alloca %class.obj_ref.28, align 8
  %cmp = icmp eq ptr %a, null
  br i1 %cmp, label %if.then, label %_ZN15ref_vector_coreI4expr19ref_manager_wrapperIS0_11ast_managerEE7inc_refEPS0_.exit.i

if.then:                                          ; preds = %entry
  %vtable = load ptr, ptr %this, align 8
  %vfn = getelementptr inbounds i8, ptr %vtable, i64 144
  %0 = load ptr, ptr %vfn, align 8
  tail call void %0(ptr noundef nonnull align 8 dereferenceable(96) %this, ptr noundef %t)
  br label %if.end

_ZN15ref_vector_coreI4expr19ref_manager_wrapperIS0_11ast_managerEE7inc_refEPS0_.exit.i: ; preds = %entry
  %m_ref_count.i.i.i.i.i = getelementptr inbounds i8, ptr %a, i64 8
  %1 = load i32, ptr %m_ref_count.i.i.i.i.i, align 4
  %inc.i.i.i.i.i = add i32 %1, 1
  store i32 %inc.i.i.i.i.i, ptr %m_ref_count.i.i.i.i.i, align 4
  %m_nodes.i = getelementptr inbounds i8, ptr %this, i64 104
  %2 = load ptr, ptr %m_nodes.i, align 8
  %cmp.i.i = icmp eq ptr %2, null
  br i1 %cmp.i.i, label %if.then.i.i, label %lor.lhs.false.i.i

lor.lhs.false.i.i:                                ; preds = %_ZN15ref_vector_coreI4expr19ref_manager_wrapperIS0_11ast_managerEE7inc_refEPS0_.exit.i
  %arrayidx.i.i = getelementptr inbounds i8, ptr %2, i64 -4
  %3 = load i32, ptr %arrayidx.i.i, align 4
  %arrayidx4.i.i = getelementptr inbounds i8, ptr %2, i64 -8
  %4 = load i32, ptr %arrayidx4.i.i, align 4
  %cmp5.i.i = icmp eq i32 %3, %4
  br i1 %cmp5.i.i, label %if.then.i.i, label %_ZN15ref_vector_coreI4expr19ref_manager_wrapperIS0_11ast_managerEE9push_backEPS0_.exit

if.then.i.i:                                      ; preds = %lor.lhs.false.i.i, %_ZN15ref_vector_coreI4expr19ref_manager_wrapperIS0_11ast_managerEE7inc_refEPS0_.exit.i
  tail call void @_ZN6vectorIP4exprLb0EjE13expand_vectorEv(ptr noundef nonnull align 8 dereferenceable(8) %m_nodes.i)
  %.pre.i.i = load ptr, ptr %m_nodes.i, align 8
  %arrayidx8.phi.trans.insert.i.i = getelementptr inbounds i8, ptr %.pre.i.i, i64 -4
  %.pre1.i.i = load i32, ptr %arrayidx8.phi.trans.insert.i.i, align 4
  br label %_ZN15ref_vector_coreI4expr19ref_manager_wrapperIS0_11ast_managerEE9push_backEPS0_.exit

_ZN15ref_vector_coreI4expr19ref_manager_wrapperIS0_11ast_managerEE9push_backEPS0_.exit: ; preds = %lor.lhs.false.i.i, %if.then.i.i
  %5 = phi i32 [ %.pre1.i.i, %if.then.i.i ], [ %3, %lor.lhs.false.i.i ]
  %6 = phi ptr [ %.pre.i.i, %if.then.i.i ], [ %2, %lor.lhs.false.i.i ]
  %idx.ext.i.i = zext i32 %5 to i64
  %add.ptr.i.i = getelementptr inbounds ptr, ptr %6, i64 %idx.ext.i.i
  store ptr %a, ptr %add.ptr.i.i, align 8
  %7 = load ptr, ptr %m_nodes.i, align 8
  %arrayidx10.i.i = getelementptr inbounds i8, ptr %7, i64 -4
  %8 = load i32, ptr %arrayidx10.i.i, align 4
  %inc.i.i = add i32 %8, 1
  store i32 %inc.i.i, ptr %arrayidx10.i.i, align 4
  %m = getelementptr inbounds i8, ptr %this, i64 8
  %9 = load ptr, ptr %m, align 8
  store ptr null, ptr %new_t, align 8
  %m_manager.i = getelementptr inbounds i8, ptr %new_t, i64 8
  store ptr %9, ptr %m_manager.i, align 8
  %call.i4 = invoke noundef ptr @_ZN11ast_manager6mk_appEiiP4exprS1_(ptr noundef nonnull align 8 dereferenceable(976) %9, i32 noundef 0, i32 noundef 9, ptr noundef nonnull %a, ptr noundef %t)
          to label %invoke.cont unwind label %lpad

invoke.cont:                                      ; preds = %_ZN15ref_vector_coreI4expr19ref_manager_wrapperIS0_11ast_managerEE9push_backEPS0_.exit
  %tobool.not.i = icmp eq ptr %call.i4, null
  br i1 %tobool.not.i, label %invoke.cont4, label %_ZN11ast_manager7inc_refEP3ast.exit.i

_ZN11ast_manager7inc_refEP3ast.exit.i:            ; preds = %invoke.cont
  %m_ref_count.i.i.i = getelementptr inbounds i8, ptr %call.i4, i64 8
  %10 = load i32, ptr %m_ref_count.i.i.i, align 4
  %inc.i.i.i = add i32 %10, 1
  store i32 %inc.i.i.i, ptr %m_ref_count.i.i.i, align 4
  br label %invoke.cont4

invoke.cont4:                                     ; preds = %_ZN11ast_manager7inc_refEP3ast.exit.i, %invoke.cont
  store ptr %call.i4, ptr %new_t, align 8
  %vtable8 = load ptr, ptr %this, align 8
  %vfn9 = getelementptr inbounds i8, ptr %vtable8, i64 144
  %11 = load ptr, ptr %vfn9, align 8
  invoke void %11(ptr noundef nonnull align 8 dereferenceable(96) %this, ptr noundef %call.i4)
          to label %invoke.cont10 unwind label %lpad

invoke.cont10:                                    ; preds = %invoke.cont4
  br i1 %tobool.not.i, label %if.end, label %if.then.i.i.i5

if.then.i.i.i5:                                   ; preds = %invoke.cont10
  %m_ref_count.i.i.i.i7 = getelementptr inbounds i8, ptr %call.i4, i64 8
  %12 = load i32, ptr %m_ref_count.i.i.i.i7, align 4
  %dec.i.i.i.i8 = add i32 %12, -1
  store i32 %dec.i.i.i.i8, ptr %m_ref_count.i.i.i.i7, align 4
  %cmp.i.i.i9 = icmp eq i32 %dec.i.i.i.i8, 0
  br i1 %cmp.i.i.i9, label %if.then2.i.i.i10, label %if.end

if.then2.i.i.i10:                                 ; preds = %if.then.i.i.i5
  invoke void @_ZN11ast_manager11delete_nodeEP3ast(ptr noundef nonnull align 8 dereferenceable(976) %9, ptr noundef nonnull %call.i4)
          to label %if.end unwind label %terminate.lpad.i

terminate.lpad.i:                                 ; preds = %if.then2.i.i.i10
  %13 = landingpad { ptr, i32 }
          catch ptr null
  %14 = extractvalue { ptr, i32 } %13, 0
  tail call void @__clang_call_terminate(ptr %14) #19
  unreachable

lpad:                                             ; preds = %_ZN15ref_vector_coreI4expr19ref_manager_wrapperIS0_11ast_managerEE9push_backEPS0_.exit, %invoke.cont4
  %15 = landingpad { ptr, i32 }
          cleanup
  call void @_ZN7obj_refI4expr11ast_managerED2Ev(ptr noundef nonnull align 8 dereferenceable(16) %new_t) #20
  resume { ptr, i32 } %15

if.end:                                           ; preds = %if.then2.i.i.i10, %if.then.i.i.i5, %invoke.cont10, %if.then
  ret void
}